target datalayout = "e-m:e-p270:32:32-p271:32:32-p272:64:64-i64:64-i128:128-f80:128-n8:16:32:64-S128"
target triple = "x86_64-pc-linux-gnu"

%struct.SDL_HIDAPI_DeviceDriver = type { ptr, i8, ptr, ptr, ptr, ptr, ptr, ptr, ptr, ptr, ptr, ptr, ptr, ptr, ptr, ptr, ptr, ptr, ptr }
%struct.SDL_AtomicInt = type { i32 }
%struct.SDL_HIDAPI_Device = type { ptr, ptr, ptr, ptr, i16, i16, i16, ptr, %struct.SDL_GUID, i32, i32, i32, i32, i16, i16, i8, i32, i32, i32, ptr, ptr, ptr, ptr, %struct.SDL_AtomicInt, i32, ptr, i8, i8, i8, ptr, i32, ptr, ptr }
%struct.SDL_GUID = type { [16 x i8] }

@SDL_HIDAPI_devices = internal global ptr null, align 8

; Function Attrs: nounwind uwtable
define internal ptr @HIDAPI_GetDeviceByIndex(i32 noundef %0, ptr noundef %1) #0 {
  %3 = alloca ptr, align 8
  %4 = alloca i32, align 4
  %5 = alloca ptr, align 8
  %6 = alloca ptr, align 8
  %7 = alloca i32, align 4
  store i32 %0, ptr %4, align 4
  store ptr %1, ptr %5, align 8
  call void @llvm.lifetime.start.p0(i64 8, ptr %6) #7
  call void @SDL_AssertJoysticksLocked()
  %8 = load ptr, ptr @SDL_HIDAPI_devices, align 8
  store ptr %8, ptr %6, align 8
  br label %9

9:                                                ; preds = %55, %2
  %10 = load ptr, ptr %6, align 8
  %11 = icmp ne ptr %10, null
  br i1 %11, label %12, label %59

12:                                               ; preds = %9
  %13 = load ptr, ptr %6, align 8
  %14 = getelementptr inbounds nuw %struct.SDL_HIDAPI_Device, ptr %13, i32 0, i32 29
  %15 = load ptr, ptr %14, align 8
  %16 = icmp ne ptr %15, null
  br i1 %16, label %22, label %17

17:                                               ; preds = %12
  %18 = load ptr, ptr %6, align 8
  %19 = getelementptr inbounds nuw %struct.SDL_HIDAPI_Device, ptr %18, i32 0, i32 28
  %20 = load i8, ptr %19, align 2, !range !6, !noundef !7
  %21 = trunc i8 %20 to i1
  br i1 %21, label %22, label %23

22:                                               ; preds = %17, %12
  br label %55

23:                                               ; preds = %17
  %24 = load ptr, ptr %6, align 8
  %25 = getelementptr inbounds nuw %struct.SDL_HIDAPI_Device, ptr %24, i32 0, i32 19
  %26 = load ptr, ptr %25, align 8
  %27 = icmp ne ptr %26, null
  br i1 %27, label %28, label %54

28:                                               ; preds = %23
  %29 = load i32, ptr %4, align 4
  %30 = load ptr, ptr %6, align 8
  %31 = getelementptr inbounds nuw %struct.SDL_HIDAPI_Device, ptr %30, i32 0, i32 24
  %32 = load i32, ptr %31, align 4
  %33 = icmp slt i32 %29, %32
  br i1 %33, label %34, label %48

34:                                               ; preds = %28
  %35 = load ptr, ptr %5, align 8
  %36 = icmp ne ptr %35, null
  br i1 %36, label %37, label %46

37:                                               ; preds = %34
  %38 = load ptr, ptr %6, align 8
  %39 = getelementptr inbounds nuw %struct.SDL_HIDAPI_Device, ptr %38, i32 0, i32 25
  %40 = load ptr, ptr %39, align 8
  %41 = load i32, ptr %4, align 4
  %42 = sext i32 %41 to i64
  %43 = getelementptr inbounds i32, ptr %40, i64 %42
  %44 = load i32, ptr %43, align 4
  %45 = load ptr, ptr %5, align 8
  store i32 %44, ptr %45, align 4
  br label %46

46:                                               ; preds = %37, %34
  %47 = load ptr, ptr %6, align 8
  store ptr %47, ptr %3, align 8
  store i32 1, ptr %7, align 4
  br label %60

48:                                               ; preds = %28
  %49 = load ptr, ptr %6, align 8
  %50 = getelementptr inbounds nuw %struct.SDL_HIDAPI_Device, ptr %49, i32 0, i32 24
  %51 = load i32, ptr %50, align 4
  %52 = load i32, ptr %4, align 4
  %53 = sub nsw i32 %52, %51
  store i32 %53, ptr %4, align 4
  br label %54

54:                                               ; preds = %48, %23
  br label %55

55:                                               ; preds = %54, %22
  %56 = load ptr, ptr %6, align 8
  %57 = getelementptr inbounds nuw %struct.SDL_HIDAPI_Device, ptr %56, i32 0, i32 32
  %58 = load ptr, ptr %57, align 8
  store ptr %58, ptr %6, align 8
  br label %9, !llvm.loop !52

59:                                               ; preds = %9
  store ptr null, ptr %3, align 8
  store i32 1, ptr %7, align 4
  br label %60

60:                                               ; preds = %59, %46
  call void @llvm.lifetime.end.p0(i64 8, ptr %6) #7
  %61 = load ptr, ptr %3, align 8
  ret ptr %61
}

; Function Attrs: nounwind uwtable
define internal i32 @HIDAPI_JoystickGetDevicePlayerIndex(i32 noundef %0) #0 {
  %2 = alloca i32, align 4
  %3 = alloca ptr, align 8
  %4 = alloca i32, align 4
  %5 = alloca i32, align 4
  store i32 %0, ptr %2, align 4
  call void @llvm.lifetime.start.p0(i64 8, ptr %3) #7
  call void @llvm.lifetime.start.p0(i64 4, ptr %4) #7
  call void @llvm.lifetime.start.p0(i64 4, ptr %5) #7
  store i32 -1, ptr %5, align 4
  %6 = load i32, ptr %2, align 4
  %7 = call ptr @HIDAPI_GetDeviceByIndex(i32 noundef %6, ptr noundef %4)
  store ptr %7, ptr %3, align 8
  %8 = load ptr, ptr %3, align 8
  %9 = icmp ne ptr %8, null
  br i1 %9, label %10, label %19

10:                                               ; preds = %1
  %11 = load ptr, ptr %3, align 8
  %12 = getelementptr inbounds nuw %struct.SDL_HIDAPI_Device, ptr %11, i32 0, i32 19
  %13 = load ptr, ptr %12, align 8
  %14 = getelementptr inbounds nuw %struct.SDL_HIDAPI_DeviceDriver, ptr %13, i32 0, i32 7
  %15 = load ptr, ptr %14, align 8
  %16 = load ptr, ptr %3, align 8
  %17 = load i32, ptr %4, align 4
  %18 = call i32 %15(ptr noundef %16, i32 noundef %17)
  store i32 %18, ptr %5, align 4
  br label %19

19:                                               ; preds = %10, %1
  %20 = load i32, ptr %5, align 4
  call void @llvm.lifetime.end.p0(i64 4, ptr %5) #7
  call void @llvm.lifetime.end.p0(i64 4, ptr %4) #7
  call void @llvm.lifetime.end.p0(i64 8, ptr %3) #7
  ret i32 %20
}